target datalayout = "e-m:e-p270:32:32-p271:32:32-p272:64:64-i64:64-i128:128-f80:128-n8:16:32:64-S128"
target triple = "x86_64-pc-linux-gnu"

%struct.simple_ssl_session_st = type { ptr, i32, ptr, i32, ptr }

@bio_err = external global ptr, align 8
@first = internal global ptr null, align 8
@.str.614 = private unnamed_addr constant [27 x i8] c"Lookup session: cache hit\0A\00", align 1
@.str.615 = private unnamed_addr constant [28 x i8] c"Lookup session: cache miss\0A\00", align 1

; Function Attrs: nounwind uwtable
define internal ptr @get_session(ptr noundef %0, ptr noundef %1, i32 noundef %2, ptr noundef %3) #0 {
  %5 = alloca ptr, align 8
  %6 = alloca ptr, align 8
  %7 = alloca ptr, align 8
  %8 = alloca i32, align 4
  %9 = alloca ptr, align 8
  %10 = alloca ptr, align 8
  %11 = alloca ptr, align 8
  %12 = alloca i32, align 4
  store ptr %0, ptr %6, align 8, !tbaa !73
  store ptr %1, ptr %7, align 8, !tbaa !31
  store i32 %2, ptr %8, align 4, !tbaa !4
  store ptr %3, ptr %9, align 8, !tbaa !75
  call void @llvm.lifetime.start.p0(i64 8, ptr %10) #10
  %13 = load ptr, ptr %9, align 8, !tbaa !75
  store i32 0, ptr %13, align 4, !tbaa !4
  %14 = load ptr, ptr @first, align 8, !tbaa !118
  store ptr %14, ptr %10, align 8, !tbaa !118
  br label %15

15:                                               ; preds = %47, %4
  %16 = load ptr, ptr %10, align 8, !tbaa !118
  %17 = icmp ne ptr %16, null
  br i1 %17, label %18, label %51

18:                                               ; preds = %15
  %19 = load i32, ptr %8, align 4, !tbaa !4
  %20 = load ptr, ptr %10, align 8, !tbaa !118
  %21 = getelementptr inbounds nuw %struct.simple_ssl_session_st, ptr %20, i32 0, i32 1
  %22 = load i32, ptr %21, align 8, !tbaa !160
  %23 = icmp eq i32 %19, %22
  br i1 %23, label %24, label %46

24:                                               ; preds = %18
  %25 = load ptr, ptr %10, align 8, !tbaa !118
  %26 = getelementptr inbounds nuw %struct.simple_ssl_session_st, ptr %25, i32 0, i32 0
  %27 = load ptr, ptr %26, align 8, !tbaa !120
  %28 = load ptr, ptr %7, align 8, !tbaa !31
  %29 = load i32, ptr %8, align 4, !tbaa !4
  %30 = sext i32 %29 to i64
  %31 = call i32 @memcmp(ptr noundef %27, ptr noundef %28, i64 noundef %30) #11
  %32 = icmp ne i32 %31, 0
  br i1 %32, label %46, label %33

33:                                               ; preds = %24
  call void @llvm.lifetime.start.p0(i64 8, ptr %11) #10
  %34 = load ptr, ptr %10, align 8, !tbaa !118
  %35 = getelementptr inbounds nuw %struct.simple_ssl_session_st, ptr %34, i32 0, i32 2
  %36 = load ptr, ptr %35, align 8, !tbaa !122
  store ptr %36, ptr %11, align 8, !tbaa !31
  %37 = load ptr, ptr @bio_err, align 8, !tbaa !35
  %38 = call i32 (ptr, ptr, ...) @BIO_printf(ptr noundef %37, ptr noundef @.str.614)
  %39 = load ptr, ptr %10, align 8, !tbaa !118
  %40 = getelementptr inbounds nuw %struct.simple_ssl_session_st, ptr %39, i32 0, i32 3
  %41 = load i32, ptr %40, align 8, !tbaa !159
  %42 = sext i32 %41 to i64
  %43 = call ptr @app_get0_libctx()
  %44 = call ptr @app_get0_propq()
  %45 = call ptr @d2i_SSL_SESSION_ex(ptr noundef null, ptr noundef %11, i64 noundef %42, ptr noundef %43, ptr noundef %44)
  store ptr %45, ptr %5, align 8
  store i32 1, ptr %12, align 4
  call void @llvm.lifetime.end.p0(i64 8, ptr %11) #10
  br label %54

46:                                               ; preds = %24, %18
  br label %47

47:                                               ; preds = %46
  %48 = load ptr, ptr %10, align 8, !tbaa !118
  %49 = getelementptr inbounds nuw %struct.simple_ssl_session_st, ptr %48, i32 0, i32 4
  %50 = load ptr, ptr %49, align 8, !tbaa !123
  store ptr %50, ptr %10, align 8, !tbaa !118
  br label %15, !llvm.loop !161

51:                                               ; preds = %15
  %52 = load ptr, ptr @bio_err, align 8, !tbaa !35
  %53 = call i32 (ptr, ptr, ...) @BIO_printf(ptr noundef %52, ptr noundef @.str.615)
  store ptr null, ptr %5, align 8
  store i32 1, ptr %12, align 4
  br label %54

54:                                               ; preds = %51, %33
  call void @llvm.lifetime.end.p0(i64 8, ptr %10) #10
  %55 = load ptr, ptr %5, align 8
  ret ptr %55
}