; Function Attrs: nounwind uwtable
define internal ptr @get_session(ptr readnone captures(none) %0, ptr noundef readonly captures(none) %1, i32 noundef %2, ptr noundef writeonly captures(none) initializes((0, 4)) %3) #0 {
  %5 = alloca ptr, align 8
  store i32 0, ptr %3, align 4, !tbaa !13
  %.014 = load ptr, ptr @first, align 8, !tbaa !51
  %.not15 = icmp eq ptr %.014, null
  br i1 %.not15, label %._crit_edge, label %.lr.ph

.lr.ph:                                           ; preds = %4
  %6 = sext i32 %2 to i64
  br label %7

7:                                                ; preds = %.lr.ph, %24
  %.016 = phi ptr [ %.014, %.lr.ph ], [ %.0, %24 ]
  %8 = getelementptr inbounds nuw i8, ptr %.016, i64 8
  %9 = load i32, ptr %8, align 8, !tbaa !97
  %10 = icmp eq i32 %2, %9
  br i1 %10, label %11, label %24

11:                                               ; preds = %7
  %12 = load ptr, ptr %.016, align 8, !tbaa !53
  %bcmp = tail call i32 @bcmp(ptr %12, ptr %1, i64 %6)
  %.not12 = icmp eq i32 %bcmp, 0
  br i1 %.not12, label %13, label %24

13:                                               ; preds = %11
  call void @llvm.lifetime.start.p0(i64 8, ptr nonnull %5) #14
  %14 = getelementptr inbounds nuw i8, ptr %.016, i64 16
  %15 = load ptr, ptr %14, align 8, !tbaa !55
  store ptr %15, ptr %5, align 8, !tbaa !11
  %16 = load ptr, ptr @bio_err, align 8, !tbaa !19
  %17 = tail call i32 (ptr, ptr, ...) @BIO_printf(ptr noundef %16, ptr noundef nonnull @.str.614) #14
  %18 = getelementptr inbounds nuw i8, ptr %.016, i64 24
  %19 = load i32, ptr %18, align 8, !tbaa !96
  %20 = sext i32 %19 to i64
  %21 = tail call ptr @app_get0_libctx() #14
  %22 = tail call ptr @app_get0_propq() #14
  %23 = call ptr @d2i_SSL_SESSION_ex(ptr noundef null, ptr noundef nonnull %5, i64 noundef %20, ptr noundef %21, ptr noundef %22) #14
  call void @llvm.lifetime.end.p0(i64 8, ptr nonnull %5) #14
  br label %28

24:                                               ; preds = %7, %11
  %25 = getelementptr inbounds nuw i8, ptr %.016, i64 32
  %.0 = load ptr, ptr %25, align 8, !tbaa !51
  %.not = icmp eq ptr %.0, null
  br i1 %.not, label %._crit_edge, label %7, !llvm.loop !98

._crit_edge:                                      ; preds = %24, %4
  %26 = load ptr, ptr @bio_err, align 8, !tbaa !19
  %27 = tail call i32 (ptr, ptr, ...) @BIO_printf(ptr noundef %26, ptr noundef nonnull @.str.615) #14
  br label %28

28:                                               ; preds = %._crit_edge, %13
  %.010 = phi ptr [ %23, %13 ], [ null, %._crit_edge ]
  ret ptr %.010
}